; Function Attrs: nounwind uwtable
define internal noundef i32 @setConfigLatencyTrackingInfoPercentilesOutputOption(ptr nocapture readnone %config, ptr nocapture noundef readonly %argv, i32 noundef %argc, ptr nocapture noundef writeonly %err) #2 {
entry:
  %percentile = alloca double, align 8
  %0 = load ptr, ptr getelementptr inbounds (%struct.redisServer, ptr @server, i64 0, i32 182), align 8
  tail call void @zfree(ptr noundef %0) #24
  store ptr null, ptr getelementptr inbounds (%struct.redisServer, ptr @server, i64 0, i32 182), align 8
  store i32 %argc, ptr getelementptr inbounds (%struct.redisServer, ptr @server, i64 0, i32 183), align 8
  %cmp = icmp eq i32 %argc, 1
  br i1 %cmp, label %land.lhs.true, label %if.end

land.lhs.true:                                    ; preds = %entry
  %1 = load ptr, ptr %argv, align 8
  %arrayidx.i = getelementptr inbounds i8, ptr %1, i64 -1
  %2 = load i8, ptr %arrayidx.i, align 1
  %conv.i = zext i8 %2 to i32
  %and.i = and i32 %conv.i, 7
  switch i32 %and.i, label %return.sink.split [
    i32 0, label %sw.bb.i
    i32 1, label %sw.bb3.i
    i32 2, label %sw.bb5.i
    i32 3, label %sw.bb9.i
    i32 4, label %sw.bb13.i
  ]

sw.bb.i:                                          ; preds = %land.lhs.true
  %shr.i = lshr i32 %conv.i, 3
  %conv2.i = zext nneg i32 %shr.i to i64
  br label %sdslen.exit

sw.bb3.i:                                         ; preds = %land.lhs.true
  %add.ptr.i = getelementptr inbounds i8, ptr %1, i64 -3
  %3 = load i8, ptr %add.ptr.i, align 1
  %conv4.i = zext i8 %3 to i64
  br label %sdslen.exit

sw.bb5.i:                                         ; preds = %land.lhs.true
  %add.ptr6.i = getelementptr inbounds i8, ptr %1, i64 -5
  %4 = load i16, ptr %add.ptr6.i, align 1
  %conv8.i = zext i16 %4 to i64
  br label %sdslen.exit

sw.bb9.i:                                         ; preds = %land.lhs.true
  %add.ptr10.i = getelementptr inbounds i8, ptr %1, i64 -9
  %5 = load i32, ptr %add.ptr10.i, align 1
  %conv12.i = zext i32 %5 to i64
  br label %sdslen.exit

sw.bb13.i:                                        ; preds = %land.lhs.true
  %add.ptr14.i = getelementptr inbounds i8, ptr %1, i64 -17
  %6 = load i64, ptr %add.ptr14.i, align 1
  br label %sdslen.exit

sdslen.exit:                                      ; preds = %sw.bb.i, %sw.bb3.i, %sw.bb5.i, %sw.bb9.i, %sw.bb13.i
  %retval.0.i = phi i64 [ %6, %sw.bb13.i ], [ %conv12.i, %sw.bb9.i ], [ %conv8.i, %sw.bb5.i ], [ %conv4.i, %sw.bb3.i ], [ %conv2.i, %sw.bb.i ]
  %cmp1 = icmp eq i64 %retval.0.i, 0
  br i1 %cmp1, label %return.sink.split, label %if.end

if.end:                                           ; preds = %entry, %sdslen.exit
  %conv = sext i32 %argc to i64
  %mul = shl nsw i64 %conv, 3
  %call2 = tail call noalias ptr @zmalloc(i64 noundef %mul) #27
  store ptr %call2, ptr getelementptr inbounds (%struct.redisServer, ptr @server, i64 0, i32 182), align 8
  %.pre = load i32, ptr getelementptr inbounds (%struct.redisServer, ptr @server, i64 0, i32 183), align 8
  %7 = icmp sgt i32 %.pre, 0
  br i1 %7, label %for.body, label %return

for.body:                                         ; preds = %if.end, %if.end17
  %indvars.iv = phi i64 [ %indvars.iv.next, %if.end17 ], [ 0, %if.end ]
  %arrayidx5 = getelementptr inbounds ptr, ptr %argv, i64 %indvars.iv
  %8 = load ptr, ptr %arrayidx5, align 8
  %arrayidx.i10 = getelementptr inbounds i8, ptr %8, i64 -1
  %9 = load i8, ptr %arrayidx.i10, align 1
  %conv.i11 = zext i8 %9 to i32
  %and.i12 = and i32 %conv.i11, 7
  switch i32 %and.i12, label %sdslen.exit28 [
    i32 0, label %sw.bb.i25
    i32 1, label %sw.bb3.i22
    i32 2, label %sw.bb5.i19
    i32 3, label %sw.bb9.i16
    i32 4, label %sw.bb13.i13
  ]

sw.bb.i25:                                        ; preds = %for.body
  %shr.i26 = lshr i32 %conv.i11, 3
  %conv2.i27 = zext nneg i32 %shr.i26 to i64
  br label %sdslen.exit28

sw.bb3.i22:                                       ; preds = %for.body
  %add.ptr.i23 = getelementptr inbounds i8, ptr %8, i64 -3
  %10 = load i8, ptr %add.ptr.i23, align 1
  %conv4.i24 = zext i8 %10 to i64
  br label %sdslen.exit28

sw.bb5.i19:                                       ; preds = %for.body
  %add.ptr6.i20 = getelementptr inbounds i8, ptr %8, i64 -5
  %11 = load i16, ptr %add.ptr6.i20, align 1
  %conv8.i21 = zext i16 %11 to i64
  br label %sdslen.exit28

sw.bb9.i16:                                       ; preds = %for.body
  %add.ptr10.i17 = getelementptr inbounds i8, ptr %8, i64 -9
  %12 = load i32, ptr %add.ptr10.i17, align 1
  %conv12.i18 = zext i32 %12 to i64
  br label %sdslen.exit28

sw.bb13.i13:                                      ; preds = %for.body
  %add.ptr14.i14 = getelementptr inbounds i8, ptr %8, i64 -17
  %13 = load i64, ptr %add.ptr14.i14, align 1
  br label %sdslen.exit28

sdslen.exit28:                                    ; preds = %for.body, %sw.bb.i25, %sw.bb3.i22, %sw.bb5.i19, %sw.bb9.i16, %sw.bb13.i13
  %retval.0.i15 = phi i64 [ %13, %sw.bb13.i13 ], [ %conv12.i18, %sw.bb9.i16 ], [ %conv8.i21, %sw.bb5.i19 ], [ %conv4.i24, %sw.bb3.i22 ], [ %conv2.i27, %sw.bb.i25 ], [ 0, %for.body ]
  %call9 = call i32 @string2d(ptr noundef nonnull %8, i64 noundef %retval.0.i15, ptr noundef nonnull %percentile) #24
  %tobool.not = icmp eq i32 %call9, 0
  br i1 %tobool.not, label %configerr, label %if.end11

if.end11:                                         ; preds = %sdslen.exit28
  %14 = load double, ptr %percentile, align 8
  %cmp12 = fcmp ogt double %14, 1.000000e+02
  %cmp14 = fcmp olt double %14, 0.000000e+00
  %or.cond = or i1 %cmp12, %cmp14
  br i1 %or.cond, label %configerr, label %if.end17

if.end17:                                         ; preds = %if.end11
  %15 = load ptr, ptr getelementptr inbounds (%struct.redisServer, ptr @server, i64 0, i32 182), align 8
  %arrayidx19 = getelementptr inbounds double, ptr %15, i64 %indvars.iv
  store double %14, ptr %arrayidx19, align 8
  %indvars.iv.next = add nuw nsw i64 %indvars.iv, 1
  %16 = load i32, ptr getelementptr inbounds (%struct.redisServer, ptr @server, i64 0, i32 183), align 8
  %17 = sext i32 %16 to i64
  %cmp3 = icmp slt i64 %indvars.iv.next, %17
  br i1 %cmp3, label %for.body, label %return, !llvm.loop !58

configerr:                                        ; preds = %if.end11, %sdslen.exit28
  %storemerge = phi ptr [ @.str.415, %sdslen.exit28 ], [ @.str.416, %if.end11 ]
  store ptr %storemerge, ptr %err, align 8
  %18 = load ptr, ptr getelementptr inbounds (%struct.redisServer, ptr @server, i64 0, i32 182), align 8
  call void @zfree(ptr noundef %18) #24
  store ptr null, ptr getelementptr inbounds (%struct.redisServer, ptr @server, i64 0, i32 182), align 8
  br label %return.sink.split

return.sink.split:                                ; preds = %land.lhs.true, %sdslen.exit, %configerr
  %retval.0.ph = phi i32 [ 0, %configerr ], [ 1, %sdslen.exit ], [ 1, %land.lhs.true ]
  store i32 0, ptr getelementptr inbounds (%struct.redisServer, ptr @server, i64 0, i32 183), align 8
  br label %return

return:                                           ; preds = %if.end17, %return.sink.split, %if.end
  %retval.0 = phi i32 [ 1, %if.end ], [ %retval.0.ph, %return.sink.split ], [ 1, %if.end17 ]
  ret i32 %retval.0
}